; Function Attrs: mustprogress uwtable
define dso_local void @_Z12readRgbaFILEP8_IO_FILEPKcRN7Imf_3_47Array2DINS3_4RgbaEEERiS8_(ptr noundef %0, ptr noundef %1, ptr noundef nonnull align 8 captures(none) dereferenceable(24) %2, ptr noundef nonnull align 4 captures(none) dereferenceable(4) %3, ptr noundef nonnull writeonly align 4 captures(none) dereferenceable(4) %4) local_unnamed_addr #8 personality ptr @__gxx_personality_v0 {
  %6 = alloca %class.C_IStream, align 8
  %7 = alloca %"class.Imf_3_4::RgbaInputFile", align 8
  call void @llvm.lifetime.start.p0(i64 48, ptr nonnull %6) #36
  call void @_ZN7Imf_3_47IStreamC2EPKc(ptr noundef nonnull align 8 dereferenceable(48) %6, ptr noundef %1)
  store ptr getelementptr inbounds nuw inrange(-16, 88) (i8, ptr @_ZTV9C_IStream, i64 16), ptr %6, align 8, !tbaa !15
  %8 = getelementptr inbounds nuw i8, ptr %6, i64 40
  store ptr %0, ptr %8, align 8, !tbaa !4
  call void @llvm.lifetime.start.p0(i64 64, ptr nonnull %7) #36
  %9 = invoke noundef i32 @_ZN7Imf_3_417globalThreadCountEv()
          to label %10 unwind label %48

10:                                               ; preds = %5
  invoke void @_ZN7Imf_3_413RgbaInputFileC1ERNS_7IStreamEi(ptr noundef nonnull align 8 dereferenceable(64) %7, ptr noundef nonnull align 8 dereferenceable(40) %6, i32 noundef %9)
          to label %11 unwind label %48

11:                                               ; preds = %10
  %12 = invoke noundef nonnull align 4 dereferenceable(16) ptr @_ZNK7Imf_3_413RgbaInputFile10dataWindowEv(ptr noundef nonnull align 8 dereferenceable(64) %7)
          to label %13 unwind label %50

13:                                               ; preds = %11
  %14 = load i32, ptr %12, align 4, !tbaa !60
  %15 = getelementptr inbounds nuw i8, ptr %12, i64 4
  %16 = load i32, ptr %15, align 4, !tbaa !62
  %17 = getelementptr inbounds nuw i8, ptr %12, i64 8
  %18 = load i32, ptr %17, align 4, !tbaa !60
  %19 = getelementptr inbounds nuw i8, ptr %12, i64 12
  %20 = load i32, ptr %19, align 4, !tbaa !62
  %reass.sub = sub i32 %18, %14
  %21 = add i32 %reass.sub, 1
  store i32 %21, ptr %3, align 4, !tbaa !59
  %22 = sub nsw i32 %20, %16
  %23 = add nsw i32 %22, 1
  store i32 %23, ptr %4, align 4, !tbaa !59
  %24 = sext i32 %23 to i64
  %25 = load i32, ptr %3, align 4, !tbaa !59
  %26 = sext i32 %25 to i64
  %27 = mul nsw i64 %26, %24
  %28 = icmp ugt i64 %27, 2305843009213693951
  %29 = shl nuw i64 %27, 3
  %30 = select i1 %28, i64 -1, i64 %29
  %31 = invoke noalias noundef nonnull ptr @_Znam(i64 noundef %30) #39
          to label %.noexc unwind label %50

.noexc:                                           ; preds = %13
  %32 = getelementptr inbounds nuw i8, ptr %2, i64 16
  %33 = load ptr, ptr %32, align 8, !tbaa !151
  %34 = icmp eq ptr %33, null
  br i1 %34, label %36, label %35

35:                                               ; preds = %.noexc
  call void @_ZdaPv(ptr noundef nonnull %33) #38
  %.pre = load i32, ptr %3, align 4, !tbaa !59
  %.pre17 = sext i32 %.pre to i64
  br label %36

36:                                               ; preds = %35, %.noexc
  %.pre-phi = phi i64 [ %.pre17, %35 ], [ %26, %.noexc ]
  %37 = phi i32 [ %.pre, %35 ], [ %25, %.noexc ]
  store i64 %24, ptr %2, align 8, !tbaa !154
  %38 = getelementptr inbounds nuw i8, ptr %2, i64 8
  store i64 %26, ptr %38, align 8, !tbaa !155
  store ptr %31, ptr %32, align 8, !tbaa !151
  %39 = sext i32 %14 to i64
  %40 = sub nsw i64 0, %39
  %41 = getelementptr inbounds %"struct.Imf_3_4::Rgba", ptr %31, i64 %40
  %42 = mul nsw i32 %37, %16
  %43 = sext i32 %42 to i64
  %44 = sub nsw i64 0, %43
  %45 = getelementptr inbounds %"struct.Imf_3_4::Rgba", ptr %41, i64 %44
  invoke void @_ZN7Imf_3_413RgbaInputFile14setFrameBufferEPNS_4RgbaEmm(ptr noundef nonnull align 8 dereferenceable(64) %7, ptr noundef nonnull %45, i64 noundef 1, i64 noundef %.pre-phi)
          to label %46 unwind label %50

46:                                               ; preds = %36
  invoke void @_ZN7Imf_3_413RgbaInputFile10readPixelsEii(ptr noundef nonnull align 8 dereferenceable(64) %7, i32 noundef %16, i32 noundef %20)
          to label %47 unwind label %50

47:                                               ; preds = %46
  call void @_ZN7Imf_3_413RgbaInputFileD1Ev(ptr noundef nonnull align 8 dereferenceable(64) %7) #36
  call void @llvm.lifetime.end.p0(i64 64, ptr nonnull %7) #36
  call void @_ZN7Imf_3_47IStreamD2Ev(ptr noundef nonnull align 8 dereferenceable(48) %6) #36
  call void @llvm.lifetime.end.p0(i64 48, ptr nonnull %6) #36
  ret void

48:                                               ; preds = %10, %5
  %49 = landingpad { ptr, i32 }
          cleanup
  br label %52

50:                                               ; preds = %13, %46, %36, %11
  %51 = landingpad { ptr, i32 }
          cleanup
  call void @_ZN7Imf_3_413RgbaInputFileD1Ev(ptr noundef nonnull align 8 dereferenceable(64) %7) #36
  br label %52

52:                                               ; preds = %50, %48
  %.pn = phi { ptr, i32 } [ %51, %50 ], [ %49, %48 ]
  call void @llvm.lifetime.end.p0(i64 64, ptr nonnull %7) #36
  call void @_ZN7Imf_3_47IStreamD2Ev(ptr noundef nonnull align 8 dereferenceable(48) %6) #36
  call void @llvm.lifetime.end.p0(i64 48, ptr nonnull %6) #36
  resume { ptr, i32 } %.pn
}